; ModuleID = '58/1278.c'
source_filename = "58/1278.c"
target datalayout = "e-m:e-p270:32:32-p271:32:32-p272:64:64-i64:64-f80:128-n8:16:32:64-S128"
target triple = "x86_64-pc-linux-gnu"

@.str = private unnamed_addr constant [3 x i8] c"%d\00", align 1
@s = common dso_local global [100 x i8] zeroinitializer, align 16
@.str.1 = private unnamed_addr constant [3 x i8] c"1\0A\00", align 1
@.str.2 = private unnamed_addr constant [3 x i8] c"0\0A\00", align 1

; Function Attrs: noinline nounwind uwtable
define dso_local i32 @main() #0 {
  %1 = alloca i32, align 4
  %2 = alloca i32, align 4
  %3 = alloca i32, align 4
  %4 = alloca i32, align 4
  %5 = alloca i8, align 1
  %6 = alloca i32, align 4
  %7 = alloca i32, align 4
  store i32 0, i32* %1, align 4
  %8 = call i32 (i8*, ...) @__isoc99_scanf(i8* getelementptr inbounds ([3 x i8], [3 x i8]* @.str, i64 0, i64 0), i32* %6)
  br label %9

9:                                                ; preds = %129, %0
  %10 = load i32, i32* %6, align 4
  %11 = add nsw i32 %10, -1
  store i32 %11, i32* %6, align 4
  %12 = icmp ne i32 %10, 0
  br i1 %12, label %13, label %130

13:                                               ; preds = %9
  br label %14

14:                                               ; preds = %13, %21
  %15 = call i32 @getchar()
  %16 = trunc i32 %15 to i8
  store i8 %16, i8* %5, align 1
  %17 = load i8, i8* %5, align 1
  %18 = sext i8 %17 to i32
  %19 = icmp ne i32 %18, 10
  br i1 %19, label %20, label %21

20:                                               ; preds = %14
  br label %22

21:                                               ; preds = %14
  br label %14

22:                                               ; preds = %20
  store i32 0, i32* %2, align 4
  br label %23

23:                                               ; preds = %27, %22
  %24 = load i8, i8* %5, align 1
  %25 = sext i8 %24 to i32
  %26 = icmp ne i32 %25, 10
  br i1 %26, label %27, label %35

27:                                               ; preds = %23
  %28 = load i8, i8* %5, align 1
  %29 = load i32, i32* %2, align 4
  %30 = add nsw i32 %29, 1
  store i32 %30, i32* %2, align 4
  %31 = sext i32 %29 to i64
  %32 = getelementptr inbounds [100 x i8], [100 x i8]* @s, i64 0, i64 %31
  store i8 %28, i8* %32, align 1
  %33 = call i32 @getchar()
  %34 = trunc i32 %33 to i8
  store i8 %34, i8* %5, align 1
  br label %23

35:                                               ; preds = %23
  %36 = load i32, i32* %2, align 4
  %37 = sext i32 %36 to i64
  %38 = getelementptr inbounds [100 x i8], [100 x i8]* @s, i64 0, i64 %37
  store i8 0, i8* %38, align 1
  %39 = load i8, i8* getelementptr inbounds ([100 x i8], [100 x i8]* @s, i64 0, i64 0), align 16
  %40 = sext i8 %39 to i32
  %41 = icmp eq i32 %40, 95
  br i1 %41, label %58, label %42

42:                                               ; preds = %35
  %43 = load i8, i8* getelementptr inbounds ([100 x i8], [100 x i8]* @s, i64 0, i64 0), align 16
  %44 = sext i8 %43 to i32
  %45 = icmp sge i32 %44, 97
  br i1 %45, label %46, label %50

46:                                               ; preds = %42
  %47 = load i8, i8* getelementptr inbounds ([100 x i8], [100 x i8]* @s, i64 0, i64 0), align 16
  %48 = sext i8 %47 to i32
  %49 = icmp sle i32 %48, 122
  br i1 %49, label %58, label %50

50:                                               ; preds = %46, %42
  %51 = load i8, i8* getelementptr inbounds ([100 x i8], [100 x i8]* @s, i64 0, i64 0), align 16
  %52 = sext i8 %51 to i32
  %53 = icmp sge i32 %52, 65
  br i1 %53, label %54, label %127

54:                                               ; preds = %50
  %55 = load i8, i8* getelementptr inbounds ([100 x i8], [100 x i8]* @s, i64 0, i64 0), align 16
  %56 = sext i8 %55 to i32
  %57 = icmp sle i32 %56, 90
  br i1 %57, label %58, label %127

58:                                               ; preds = %54, %46, %35
  store i32 1, i32* %7, align 4
  store i32 1, i32* %2, align 4
  br label %59

59:                                               ; preds = %116, %58
  %60 = load i32, i32* %2, align 4
  %61 = sext i32 %60 to i64
  %62 = call i64 @strlen(i8* getelementptr inbounds ([100 x i8], [100 x i8]* @s, i64 0, i64 0)) #3
  %63 = icmp ult i64 %61, %62
  br i1 %63, label %64, label %119

64:                                               ; preds = %59
  %65 = load i32, i32* %2, align 4
  %66 = sext i32 %65 to i64
  %67 = getelementptr inbounds [100 x i8], [100 x i8]* @s, i64 0, i64 %66
  %68 = load i8, i8* %67, align 1
  %69 = sext i8 %68 to i32
  %70 = icmp eq i32 %69, 95
  br i1 %70, label %113, label %71

71:                                               ; preds = %64
  %72 = load i32, i32* %2, align 4
  %73 = sext i32 %72 to i64
  %74 = getelementptr inbounds [100 x i8], [100 x i8]* @s, i64 0, i64 %73
  %75 = load i8, i8* %74, align 1
  %76 = sext i8 %75 to i32
  %77 = icmp sge i32 %76, 97
  br i1 %77, label %78, label %85

78:                                               ; preds = %71
  %79 = load i32, i32* %2, align 4
  %80 = sext i32 %79 to i64
  %81 = getelementptr inbounds [100 x i8], [100 x i8]* @s, i64 0, i64 %80
  %82 = load i8, i8* %81, align 1
  %83 = sext i8 %82 to i32
  %84 = icmp sle i32 %83, 122
  br i1 %84, label %113, label %85

85:                                               ; preds = %78, %71
  %86 = load i32, i32* %2, align 4
  %87 = sext i32 %86 to i64
  %88 = getelementptr inbounds [100 x i8], [100 x i8]* @s, i64 0, i64 %87
  %89 = load i8, i8* %88, align 1
  %90 = sext i8 %89 to i32
  %91 = icmp sge i32 %90, 65
  br i1 %91, label %92, label %99

92:                                               ; preds = %85
  %93 = load i32, i32* %2, align 4
  %94 = sext i32 %93 to i64
  %95 = getelementptr inbounds [100 x i8], [100 x i8]* @s, i64 0, i64 %94
  %96 = load i8, i8* %95, align 1
  %97 = sext i8 %96 to i32
  %98 = icmp sle i32 %97, 90
  br i1 %98, label %113, label %99

99:                                               ; preds = %92, %85
  %100 = load i32, i32* %2, align 4
  %101 = sext i32 %100 to i64
  %102 = getelementptr inbounds [100 x i8], [100 x i8]* @s, i64 0, i64 %101
  %103 = load i8, i8* %102, align 1
  %104 = sext i8 %103 to i32
  %105 = icmp sge i32 %104, 48
  br i1 %105, label %106, label %114

106:                                              ; preds = %99
  %107 = load i32, i32* %2, align 4
  %108 = sext i32 %107 to i64
  %109 = getelementptr inbounds [100 x i8], [100 x i8]* @s, i64 0, i64 %108
  %110 = load i8, i8* %109, align 1
  %111 = sext i8 %110 to i32
  %112 = icmp sle i32 %111, 57
  br i1 %112, label %113, label %114

113:                                              ; preds = %106, %92, %78, %64
  br label %115

114:                                              ; preds = %106, %99
  store i32 0, i32* %7, align 4
  br label %119

115:                                              ; preds = %113
  br label %116

116:                                              ; preds = %115
  %117 = load i32, i32* %2, align 4
  %118 = add nsw i32 %117, 1
  store i32 %118, i32* %2, align 4
  br label %59

119:                                              ; preds = %114, %59
  %120 = load i32, i32* %7, align 4
  %121 = icmp eq i32 %120, 1
  br i1 %121, label %122, label %124

122:                                              ; preds = %119
  %123 = call i32 (i8*, ...) @printf(i8* getelementptr inbounds ([3 x i8], [3 x i8]* @.str.1, i64 0, i64 0))
  br label %126

124:                                              ; preds = %119
  %125 = call i32 (i8*, ...) @printf(i8* getelementptr inbounds ([3 x i8], [3 x i8]* @.str.2, i64 0, i64 0))
  br label %126

126:                                              ; preds = %124, %122
  br label %129

127:                                              ; preds = %54, %50
  %128 = call i32 (i8*, ...) @printf(i8* getelementptr inbounds ([3 x i8], [3 x i8]* @.str.2, i64 0, i64 0))
  br label %129

129:                                              ; preds = %127, %126
  br label %9

130:                                              ; preds = %9
  ret i32 0
}

declare dso_local i32 @__isoc99_scanf(i8*, ...) #1

declare dso_local i32 @getchar() #1

; Function Attrs: nounwind readonly
declare dso_local i64 @strlen(i8*) #2

declare dso_local i32 @printf(i8*, ...) #1


!llvm.module.flags = !{!0}
!llvm.ident = !{!1}

!0 = !{i32 1, !"wchar_size", i32 4}
!1 = !{!"clang version 10.0.0-4ubuntu1 "}
