; ModuleID = 'source-C-CXX/57/1278.c'
source_filename = "source-C-CXX/57/1278.c"
target datalayout = "e-m:e-p270:32:32-p271:32:32-p272:64:64-i64:64-f80:128-n8:16:32:64-S128"
target triple = "x86_64-pc-linux-gnu"

%struct._IO_FILE = type { i32, i8*, i8*, i8*, i8*, i8*, i8*, i8*, i8*, i8*, i8*, i8*, %struct._IO_marker*, %struct._IO_FILE*, i32, i32, i64, i16, i8, [1 x i8], i8*, i64, %struct._IO_codecvt*, %struct._IO_wide_data*, %struct._IO_FILE*, i8*, i64, i32, [20 x i8] }
%struct._IO_marker = type opaque
%struct._IO_codecvt = type opaque
%struct._IO_wide_data = type opaque

@.str = private unnamed_addr constant [3 x i8] c"%d\00", align 1
@s = dso_local global [100 x i8] zeroinitializer, align 16
@stdin = external local_unnamed_addr global %struct._IO_FILE*, align 8
@str.3 = private unnamed_addr constant [2 x i8] c"0\00", align 1
@str.4 = private unnamed_addr constant [2 x i8] c"1\00", align 1

; Function Attrs: nofree nounwind sspstrong uwtable
define dso_local i32 @main() local_unnamed_addr #0 {
  %1 = alloca i32, align 4
  %2 = bitcast i32* %1 to i8*
  call void @llvm.lifetime.start.p0i8(i64 4, i8* nonnull %2) #5
  %3 = call i32 (i8*, ...) @__isoc99_scanf(i8* getelementptr inbounds ([3 x i8], [3 x i8]* @.str, i64 0, i64 0), i32* nonnull %1)
  %4 = load i32, i32* %1, align 4, !tbaa !5
  %5 = add nsw i32 %4, -1
  store i32 %5, i32* %1, align 4, !tbaa !5
  %6 = icmp eq i32 %4, 0
  br i1 %6, label %56, label %7

7:                                                ; preds = %0, %12
  %8 = load %struct._IO_FILE*, %struct._IO_FILE** @stdin, align 8, !tbaa !9
  %9 = call i32 @getc(%struct._IO_FILE* %8) #5
  %10 = and i32 %9, 255
  %11 = icmp eq i32 %10, 10
  br i1 %11, label %12, label %13

12:                                               ; preds = %7, %50
  br label %7, !llvm.loop !11

13:                                               ; preds = %7, %13
  %14 = phi i64 [ %17, %13 ], [ 0, %7 ]
  %15 = phi i32 [ %20, %13 ], [ %9, %7 ]
  %16 = trunc i32 %15 to i8
  %17 = add nuw i64 %14, 1
  %18 = getelementptr inbounds [100 x i8], [100 x i8]* @s, i64 0, i64 %14
  store i8 %16, i8* %18, align 1, !tbaa !13
  %19 = load %struct._IO_FILE*, %struct._IO_FILE** @stdin, align 8, !tbaa !9
  %20 = call i32 @getc(%struct._IO_FILE* %19) #5
  %21 = and i32 %20, 255
  %22 = icmp eq i32 %21, 10
  br i1 %22, label %23, label %13, !llvm.loop !14

23:                                               ; preds = %13
  %24 = and i64 %17, 4294967295
  %25 = getelementptr inbounds [100 x i8], [100 x i8]* @s, i64 0, i64 %24
  store i8 0, i8* %25, align 1, !tbaa !13
  %26 = load i8, i8* getelementptr inbounds ([100 x i8], [100 x i8]* @s, i64 0, i64 0), align 16, !tbaa !13
  %27 = icmp eq i8 %26, 95
  %28 = and i8 %26, -33
  %29 = add i8 %28, -65
  %30 = icmp ult i8 %29, 26
  %31 = or i1 %30, %27
  br i1 %31, label %32, label %50

32:                                               ; preds = %23
  %33 = call i64 @strlen(i8* noundef nonnull dereferenceable(1) getelementptr inbounds ([100 x i8], [100 x i8]* @s, i64 0, i64 0)) #6
  %34 = icmp ugt i64 %33, 1
  br i1 %34, label %37, label %50

35:                                               ; preds = %37
  %36 = icmp eq i64 %49, %33
  br i1 %36, label %50, label %37, !llvm.loop !15

37:                                               ; preds = %32, %35
  %38 = phi i64 [ %49, %35 ], [ 1, %32 ]
  %39 = getelementptr inbounds [100 x i8], [100 x i8]* @s, i64 0, i64 %38
  %40 = load i8, i8* %39, align 1, !tbaa !13
  %41 = icmp eq i8 %40, 95
  %42 = and i8 %40, -33
  %43 = add i8 %42, -65
  %44 = icmp ult i8 %43, 26
  %45 = or i1 %44, %41
  %46 = add i8 %40, -48
  %47 = icmp ult i8 %46, 10
  %48 = or i1 %45, %47
  %49 = add nuw i64 %38, 1
  br i1 %48, label %35, label %50

50:                                               ; preds = %37, %35, %23, %32
  %51 = phi i8* [ getelementptr inbounds ([2 x i8], [2 x i8]* @str.4, i64 0, i64 0), %32 ], [ getelementptr inbounds ([2 x i8], [2 x i8]* @str.3, i64 0, i64 0), %23 ], [ getelementptr inbounds ([2 x i8], [2 x i8]* @str.4, i64 0, i64 0), %35 ], [ getelementptr inbounds ([2 x i8], [2 x i8]* @str.3, i64 0, i64 0), %37 ]
  %52 = call i32 @puts(i8* nonnull dereferenceable(1) %51)
  %53 = load i32, i32* %1, align 4, !tbaa !5
  %54 = add nsw i32 %53, -1
  store i32 %54, i32* %1, align 4, !tbaa !5
  %55 = icmp eq i32 %53, 0
  br i1 %55, label %56, label %12

56:                                               ; preds = %50, %0
  call void @llvm.lifetime.end.p0i8(i64 4, i8* nonnull %2) #5
  ret i32 0
}

; Function Attrs: argmemonly mustprogress nofree nosync nounwind willreturn
declare void @llvm.lifetime.start.p0i8(i64 immarg, i8* nocapture) #1

; Function Attrs: nofree nounwind
declare noundef i32 @__isoc99_scanf(i8* nocapture noundef readonly, ...) local_unnamed_addr #2

; Function Attrs: argmemonly mustprogress nofree nounwind readonly willreturn
declare i64 @strlen(i8* nocapture) local_unnamed_addr #3

; Function Attrs: argmemonly mustprogress nofree nosync nounwind willreturn
declare void @llvm.lifetime.end.p0i8(i64 immarg, i8* nocapture) #1

; Function Attrs: nofree nounwind
declare noundef i32 @getc(%struct._IO_FILE* nocapture noundef) local_unnamed_addr #2

; Function Attrs: nofree nounwind
declare noundef i32 @puts(i8* nocapture noundef readonly) local_unnamed_addr #4


!llvm.module.flags = !{!0, !1, !2, !3}
!llvm.ident = !{!4}

!0 = !{i32 1, !"wchar_size", i32 4}
!1 = !{i32 7, !"PIC Level", i32 2}
!2 = !{i32 7, !"PIE Level", i32 2}
!3 = !{i32 7, !"uwtable", i32 1}
!4 = !{!"clang version 13.0.0"}
!5 = !{!6, !6, i64 0}
!6 = !{!"int", !7, i64 0}
!7 = !{!"omnipotent char", !8, i64 0}
!8 = !{!"Simple C/C++ TBAA"}
!9 = !{!10, !10, i64 0}
!10 = !{!"any pointer", !7, i64 0}
!11 = distinct !{!11, !12}
!12 = !{!"llvm.loop.mustprogress"}
!13 = !{!7, !7, i64 0}
!14 = distinct !{!14, !12}
!15 = distinct !{!15, !12}
